; Function Attrs: mustprogress nounwind uwtable
define hidden void @_ZN5stackD2Ev(ptr noundef nonnull align 8 dereferenceable(32) %0) unnamed_addr #4 align 2 personality ptr @__gxx_personality_v0 {
  %2 = getelementptr inbounds nuw i8, ptr %0, i64 8
  %3 = load ptr, ptr %2, align 8, !tbaa !12
  %4 = getelementptr inbounds i8, ptr %3, i64 -8
  %5 = load i64, ptr %4, align 8, !tbaa !10
  %6 = icmp eq i64 %5, 0
  br i1 %6, label %_ZN5stack5resetEv.exit, label %.lr.ph.i

.lr.ph.i:                                         ; preds = %1
  %7 = getelementptr inbounds nuw i8, ptr %0, i64 24
  %8 = getelementptr inbounds nuw i8, ptr %0, i64 16
  br label %9

9:                                                ; preds = %_ZN5stack10deallocateEv.exit.i, %.lr.ph.i
  %10 = phi i64 [ %5, %.lr.ph.i ], [ %30, %_ZN5stack10deallocateEv.exit.i ]
  %11 = phi ptr [ %3, %.lr.ph.i ], [ %28, %_ZN5stack10deallocateEv.exit.i ]
  %12 = load ptr, ptr %0, align 8, !tbaa !3
  %13 = getelementptr inbounds nuw i8, ptr %12, i64 8
  %14 = icmp eq ptr %11, %13
  br i1 %14, label %15, label %21

15:                                               ; preds = %9
  %16 = getelementptr inbounds i8, ptr %12, i64 -8
  %17 = load i64, ptr %16, align 8, !tbaa !10
  invoke void @_Z12recycle_pagePcRS_(ptr noundef nonnull %12, ptr noundef nonnull align 8 dereferenceable(8) %7)
          to label %.noexc unwind label %.loopexit

.noexc:                                           ; preds = %15
  %18 = and i64 %17, -2
  %19 = inttoptr i64 %18 to ptr
  store ptr %19, ptr %0, align 8, !tbaa !3
  %20 = getelementptr inbounds nuw i8, ptr %19, i64 8184
  store ptr %20, ptr %8, align 8, !tbaa !9
  br label %21

21:                                               ; preds = %.noexc, %9
  %.in.i.i = and i64 %10, -2
  %22 = inttoptr i64 %.in.i.i to ptr
  store ptr %22, ptr %2, align 8, !tbaa !12
  %23 = and i64 %10, 1
  %.not.i.i = icmp eq i64 %23, 0
  br i1 %.not.i.i, label %_ZN5stack10deallocateEv.exit.i, label %24

24:                                               ; preds = %21
  %25 = load ptr, ptr %22, align 8, !tbaa !13
  %26 = icmp eq ptr %25, null
  br i1 %26, label %_ZN5stack10deallocateEv.exit.i, label %27

27:                                               ; preds = %24
  invoke void @_ZN6memory10deallocateEPv(ptr noundef nonnull %25)
          to label %.noexc1 unwind label %.loopexit

.noexc1:                                          ; preds = %27
  %.pre.i = load ptr, ptr %2, align 8, !tbaa !12
  br label %_ZN5stack10deallocateEv.exit.i

_ZN5stack10deallocateEv.exit.i:                   ; preds = %.noexc1, %24, %21
  %28 = phi ptr [ %22, %21 ], [ %22, %24 ], [ %.pre.i, %.noexc1 ]
  %29 = getelementptr inbounds i8, ptr %28, i64 -8
  %30 = load i64, ptr %29, align 8, !tbaa !10
  %31 = icmp eq i64 %30, 0
  br i1 %31, label %_ZN5stack5resetEv.exit, label %9, !llvm.loop !14

_ZN5stack5resetEv.exit:                           ; preds = %_ZN5stack10deallocateEv.exit.i, %1
  %32 = load ptr, ptr %0, align 8, !tbaa !3
  invoke void @_Z9del_pagesPc(ptr noundef %32)
          to label %33 unwind label %.loopexit.split-lp

33:                                               ; preds = %_ZN5stack5resetEv.exit
  %34 = getelementptr inbounds nuw i8, ptr %0, i64 24
  %35 = load ptr, ptr %34, align 8, !tbaa !16
  invoke void @_Z9del_pagesPc(ptr noundef %35)
          to label %36 unwind label %.loopexit.split-lp

36:                                               ; preds = %33
  ret void

.loopexit:                                        ; preds = %15, %27
  %lpad.loopexit = landingpad { ptr, i32 }
          catch ptr null
  br label %37

.loopexit.split-lp:                               ; preds = %_ZN5stack5resetEv.exit, %33
  %lpad.loopexit.split-lp = landingpad { ptr, i32 }
          catch ptr null
  br label %37

37:                                               ; preds = %.loopexit.split-lp, %.loopexit
  %lpad.phi = phi { ptr, i32 } [ %lpad.loopexit, %.loopexit ], [ %lpad.loopexit.split-lp, %.loopexit.split-lp ]
  %38 = extractvalue { ptr, i32 } %lpad.phi, 0
  tail call void @__clang_call_terminate(ptr %38) #10
  unreachable
}